; Function Attrs: mustprogress nofree norecurse nosync nounwind willreturn memory(read, inaccessiblemem: none) uwtable
define dso_local noundef range(i32 0, 3) i32 @_ZN4llvm10X86TTIImpl16getPopcntSupportEj(ptr noundef nonnull readonly align 8 captures(none) dereferenceable(72) %0, i32 noundef %1) local_unnamed_addr #0 align 2 {
  %3 = getelementptr inbounds nuw i8, ptr %0, i64 16
  %4 = load ptr, ptr %3, align 8
  %5 = getelementptr inbounds nuw i8, ptr %4, i64 403
  %6 = load i8, ptr %5, align 1
  %7 = trunc i8 %6 to i1
  %8 = select i1 %7, i32 2, i32 0
  ret i32 %8
}